; ModuleID = '38/1762.c'
source_filename = "38/1762.c"
target datalayout = "e-m:e-p270:32:32-p271:32:32-p272:64:64-i64:64-f80:128-n8:16:32:64-S128"
target triple = "x86_64-pc-linux-gnu"

@.str = private unnamed_addr constant [3 x i8] c"%d\00", align 1
@.str.1 = private unnamed_addr constant [4 x i8] c"%lf\00", align 1
@.str.2 = private unnamed_addr constant [7 x i8] c"%.5lf\0A\00", align 1

; Function Attrs: noinline nounwind uwtable
define dso_local i32 @main() #0 {
  %1 = alloca i32, align 4
  %2 = alloca i32, align 4
  %3 = alloca i32, align 4
  %4 = alloca i32, align 4
  %5 = alloca i32, align 4
  %6 = alloca i32, align 4
  %7 = alloca [1000 x double], align 16
  %8 = alloca double, align 8
  %9 = alloca double, align 8
  %10 = alloca double, align 8
  %11 = alloca double, align 8
  %12 = alloca [1000 x double], align 16
  %13 = alloca i32, align 4
  store i32 0, i32* %1, align 4
  store i32 0, i32* %6, align 4
  %14 = call i32 (i8*, ...) @__isoc99_scanf(i8* getelementptr inbounds ([3 x i8], [3 x i8]* @.str, i64 0, i64 0), i32* %2)
  store i32 0, i32* %4, align 4
  br label %15

15:                                               ; preds = %79, %0
  %16 = load i32, i32* %4, align 4
  %17 = load i32, i32* %2, align 4
  %18 = icmp slt i32 %16, %17
  br i1 %18, label %19, label %82

19:                                               ; preds = %15
  %20 = call i32 (i8*, ...) @__isoc99_scanf(i8* getelementptr inbounds ([3 x i8], [3 x i8]* @.str, i64 0, i64 0), i32* %3)
  store double 0.000000e+00, double* %10, align 8
  store double 0.000000e+00, double* %11, align 8
  store i32 0, i32* %5, align 4
  br label %21

21:                                               ; preds = %36, %19
  %22 = load i32, i32* %5, align 4
  %23 = load i32, i32* %3, align 4
  %24 = icmp slt i32 %22, %23
  br i1 %24, label %25, label %39

25:                                               ; preds = %21
  %26 = load i32, i32* %5, align 4
  %27 = sext i32 %26 to i64
  %28 = getelementptr inbounds [1000 x double], [1000 x double]* %7, i64 0, i64 %27
  %29 = call i32 (i8*, ...) @__isoc99_scanf(i8* getelementptr inbounds ([4 x i8], [4 x i8]* @.str.1, i64 0, i64 0), double* %28)
  %30 = load i32, i32* %5, align 4
  %31 = sext i32 %30 to i64
  %32 = getelementptr inbounds [1000 x double], [1000 x double]* %7, i64 0, i64 %31
  %33 = load double, double* %32, align 8
  %34 = load double, double* %10, align 8
  %35 = fadd double %34, %33
  store double %35, double* %10, align 8
  br label %36

36:                                               ; preds = %25
  %37 = load i32, i32* %5, align 4
  %38 = add nsw i32 %37, 1
  store i32 %38, i32* %5, align 4
  br label %21

39:                                               ; preds = %21
  %40 = load double, double* %10, align 8
  %41 = load i32, i32* %3, align 4
  %42 = sitofp i32 %41 to double
  %43 = fdiv double %40, %42
  store double %43, double* %8, align 8
  store i32 0, i32* %5, align 4
  br label %44

44:                                               ; preds = %64, %39
  %45 = load i32, i32* %5, align 4
  %46 = load i32, i32* %3, align 4
  %47 = icmp slt i32 %45, %46
  br i1 %47, label %48, label %67

48:                                               ; preds = %44
  %49 = load i32, i32* %5, align 4
  %50 = sext i32 %49 to i64
  %51 = getelementptr inbounds [1000 x double], [1000 x double]* %7, i64 0, i64 %50
  %52 = load double, double* %51, align 8
  %53 = load double, double* %8, align 8
  %54 = fsub double %52, %53
  %55 = load i32, i32* %5, align 4
  %56 = sext i32 %55 to i64
  %57 = getelementptr inbounds [1000 x double], [1000 x double]* %7, i64 0, i64 %56
  %58 = load double, double* %57, align 8
  %59 = load double, double* %8, align 8
  %60 = fsub double %58, %59
  %61 = fmul double %54, %60
  %62 = load double, double* %11, align 8
  %63 = fadd double %62, %61
  store double %63, double* %11, align 8
  br label %64

64:                                               ; preds = %48
  %65 = load i32, i32* %5, align 4
  %66 = add nsw i32 %65, 1
  store i32 %66, i32* %5, align 4
  br label %44

67:                                               ; preds = %44
  %68 = load double, double* %11, align 8
  %69 = load i32, i32* %3, align 4
  %70 = sitofp i32 %69 to double
  %71 = fdiv double %68, %70
  %72 = call double @sqrt(double %71) #3
  store double %72, double* %9, align 8
  %73 = load double, double* %9, align 8
  %74 = load i32, i32* %6, align 4
  %75 = sext i32 %74 to i64
  %76 = getelementptr inbounds [1000 x double], [1000 x double]* %12, i64 0, i64 %75
  store double %73, double* %76, align 8
  %77 = load i32, i32* %6, align 4
  %78 = add nsw i32 %77, 1
  store i32 %78, i32* %6, align 4
  br label %79

79:                                               ; preds = %67
  %80 = load i32, i32* %4, align 4
  %81 = add nsw i32 %80, 1
  store i32 %81, i32* %4, align 4
  br label %15

82:                                               ; preds = %15
  store i32 0, i32* %13, align 4
  br label %83

83:                                               ; preds = %93, %82
  %84 = load i32, i32* %13, align 4
  %85 = load i32, i32* %6, align 4
  %86 = icmp slt i32 %84, %85
  br i1 %86, label %87, label %96

87:                                               ; preds = %83
  %88 = load i32, i32* %13, align 4
  %89 = sext i32 %88 to i64
  %90 = getelementptr inbounds [1000 x double], [1000 x double]* %12, i64 0, i64 %89
  %91 = load double, double* %90, align 8
  %92 = call i32 (i8*, ...) @printf(i8* getelementptr inbounds ([7 x i8], [7 x i8]* @.str.2, i64 0, i64 0), double %91)
  br label %93

93:                                               ; preds = %87
  %94 = load i32, i32* %13, align 4
  %95 = add nsw i32 %94, 1
  store i32 %95, i32* %13, align 4
  br label %83

96:                                               ; preds = %83
  ret i32 0
}

declare dso_local i32 @__isoc99_scanf(i8*, ...) #1

; Function Attrs: nounwind
declare dso_local double @sqrt(double) #2

declare dso_local i32 @printf(i8*, ...) #1


!llvm.module.flags = !{!0}
!llvm.ident = !{!1}

!0 = !{i32 1, !"wchar_size", i32 4}
!1 = !{!"clang version 10.0.0-4ubuntu1 "}
